target datalayout = "e-m:e-p270:32:32-p271:32:32-p272:64:64-i64:64-i128:128-f80:128-n8:16:32:64-S128"
target triple = "x86_64-pc-linux-gnu"

%struct.AVFilterContext = type { ptr, ptr, ptr, ptr, ptr, i32, ptr, ptr, i32, ptr, ptr, i32, i32, ptr, ptr, ptr, ptr, i32, ptr, i32, i32 }
%struct.HQXContext = type { ptr, i32, ptr, [16777216 x i32] }
%struct.AVFilterLink = type { ptr, ptr, ptr, ptr, i32, i32, i32, i32, %struct.AVRational, i32, i32, i32, %struct.AVChannelLayout, %struct.AVRational, ptr, i32, %struct.AVFilterFormatsConfig, %struct.AVFilterFormatsConfig }
%struct.AVChannelLayout = type { i32, i32, %union.anon.1, ptr }
%union.anon.1 = type { i64 }
%struct.AVRational = type { i32, i32 }
%struct.AVFilterFormatsConfig = type { ptr, ptr, ptr, ptr, ptr }

@.str.3 = private unnamed_addr constant [33 x i8] c"fmt:%s size:%dx%d -> size:%dx%d\0A\00", align 1

; Function Attrs: nounwind uwtable
define internal i32 @config_output(ptr noundef %0) #1 {
  %2 = alloca ptr, align 8
  %3 = alloca ptr, align 8
  %4 = alloca ptr, align 8
  %5 = alloca ptr, align 8
  store ptr %0, ptr %2, align 8, !tbaa !33
  call void @llvm.lifetime.start.p0(i64 8, ptr %3) #8
  %6 = load ptr, ptr %2, align 8, !tbaa !33
  %7 = getelementptr inbounds nuw %struct.AVFilterLink, ptr %6, i32 0, i32 0
  %8 = load ptr, ptr %7, align 8, !tbaa !60
  store ptr %8, ptr %3, align 8, !tbaa !4
  call void @llvm.lifetime.start.p0(i64 8, ptr %4) #8
  %9 = load ptr, ptr %3, align 8, !tbaa !4
  %10 = getelementptr inbounds nuw %struct.AVFilterContext, ptr %9, i32 0, i32 9
  %11 = load ptr, ptr %10, align 8, !tbaa !9
  store ptr %11, ptr %4, align 8, !tbaa !22
  call void @llvm.lifetime.start.p0(i64 8, ptr %5) #8
  %12 = load ptr, ptr %3, align 8, !tbaa !4
  %13 = getelementptr inbounds nuw %struct.AVFilterContext, ptr %12, i32 0, i32 4
  %14 = load ptr, ptr %13, align 8, !tbaa !61
  %15 = getelementptr inbounds ptr, ptr %14, i64 0
  %16 = load ptr, ptr %15, align 8, !tbaa !33
  store ptr %16, ptr %5, align 8, !tbaa !33
  %17 = load ptr, ptr %5, align 8, !tbaa !33
  %18 = getelementptr inbounds nuw %struct.AVFilterLink, ptr %17, i32 0, i32 6
  %19 = load i32, ptr %18, align 8, !tbaa !46
  %20 = load ptr, ptr %4, align 8, !tbaa !22
  %21 = getelementptr inbounds nuw %struct.HQXContext, ptr %20, i32 0, i32 1
  %22 = load i32, ptr %21, align 8, !tbaa !29
  %23 = mul nsw i32 %19, %22
  %24 = load ptr, ptr %2, align 8, !tbaa !33
  %25 = getelementptr inbounds nuw %struct.AVFilterLink, ptr %24, i32 0, i32 6
  store i32 %23, ptr %25, align 8, !tbaa !46
  %26 = load ptr, ptr %5, align 8, !tbaa !33
  %27 = getelementptr inbounds nuw %struct.AVFilterLink, ptr %26, i32 0, i32 7
  %28 = load i32, ptr %27, align 4, !tbaa !47
  %29 = load ptr, ptr %4, align 8, !tbaa !22
  %30 = getelementptr inbounds nuw %struct.HQXContext, ptr %29, i32 0, i32 1
  %31 = load i32, ptr %30, align 8, !tbaa !29
  %32 = mul nsw i32 %28, %31
  %33 = load ptr, ptr %2, align 8, !tbaa !33
  %34 = getelementptr inbounds nuw %struct.AVFilterLink, ptr %33, i32 0, i32 7
  store i32 %32, ptr %34, align 4, !tbaa !47
  %35 = load ptr, ptr %5, align 8, !tbaa !33
  %36 = getelementptr inbounds nuw %struct.AVFilterLink, ptr %35, i32 0, i32 2
  %37 = load ptr, ptr %36, align 8, !tbaa !37
  %38 = load ptr, ptr %5, align 8, !tbaa !33
  %39 = getelementptr inbounds nuw %struct.AVFilterLink, ptr %38, i32 0, i32 5
  %40 = load i32, ptr %39, align 4, !tbaa !62
  %41 = call ptr @av_get_pix_fmt_name(i32 noundef %40)
  %42 = load ptr, ptr %5, align 8, !tbaa !33
  %43 = getelementptr inbounds nuw %struct.AVFilterLink, ptr %42, i32 0, i32 6
  %44 = load i32, ptr %43, align 8, !tbaa !46
  %45 = load ptr, ptr %5, align 8, !tbaa !33
  %46 = getelementptr inbounds nuw %struct.AVFilterLink, ptr %45, i32 0, i32 7
  %47 = load i32, ptr %46, align 4, !tbaa !47
  %48 = load ptr, ptr %2, align 8, !tbaa !33
  %49 = getelementptr inbounds nuw %struct.AVFilterLink, ptr %48, i32 0, i32 6
  %50 = load i32, ptr %49, align 8, !tbaa !46
  %51 = load ptr, ptr %2, align 8, !tbaa !33
  %52 = getelementptr inbounds nuw %struct.AVFilterLink, ptr %51, i32 0, i32 7
  %53 = load i32, ptr %52, align 4, !tbaa !47
  call void (ptr, i32, ptr, ...) @av_log(ptr noundef %37, i32 noundef 40, ptr noundef @.str.3, ptr noundef %41, i32 noundef %44, i32 noundef %47, i32 noundef %50, i32 noundef %53)
  call void @llvm.lifetime.end.p0(i64 8, ptr %5) #8
  call void @llvm.lifetime.end.p0(i64 8, ptr %4) #8
  call void @llvm.lifetime.end.p0(i64 8, ptr %3) #8
  ret i32 0
}