; Function Attrs: nounwind uwtable
define internal noundef i32 @config_output(ptr noundef captures(none) initializes((40, 48)) %0) #1 {
  %2 = load ptr, ptr %0, align 8, !tbaa !57
  %3 = getelementptr inbounds nuw i8, ptr %2, i64 72
  %4 = load ptr, ptr %3, align 8, !tbaa !4
  %5 = getelementptr inbounds nuw i8, ptr %2, i64 32
  %6 = load ptr, ptr %5, align 8, !tbaa !58
  %7 = load ptr, ptr %6, align 8, !tbaa !41
  %8 = getelementptr inbounds nuw i8, ptr %7, i64 40
  %9 = load i32, ptr %8, align 8, !tbaa !43
  %10 = getelementptr inbounds nuw i8, ptr %4, i64 8
  %11 = load i32, ptr %10, align 8, !tbaa !25
  %12 = mul nsw i32 %11, %9
  %13 = getelementptr inbounds nuw i8, ptr %0, i64 40
  store i32 %12, ptr %13, align 8, !tbaa !43
  %14 = getelementptr inbounds nuw i8, ptr %7, i64 44
  %15 = load i32, ptr %14, align 4, !tbaa !44
  %16 = mul nsw i32 %15, %11
  %17 = getelementptr inbounds nuw i8, ptr %0, i64 44
  store i32 %16, ptr %17, align 4, !tbaa !44
  %18 = getelementptr inbounds nuw i8, ptr %7, i64 16
  %19 = load ptr, ptr %18, align 8, !tbaa !31
  %20 = getelementptr inbounds nuw i8, ptr %7, i64 36
  %21 = load i32, ptr %20, align 4, !tbaa !59
  %22 = tail call ptr @av_get_pix_fmt_name(i32 noundef %21) #8
  %23 = load i32, ptr %8, align 8, !tbaa !43
  %24 = load i32, ptr %14, align 4, !tbaa !44
  %25 = load i32, ptr %13, align 8, !tbaa !43
  %26 = load i32, ptr %17, align 4, !tbaa !44
  tail call void (ptr, i32, ptr, ...) @av_log(ptr noundef %19, i32 noundef 40, ptr noundef nonnull @.str.3, ptr noundef %22, i32 noundef %23, i32 noundef %24, i32 noundef %25, i32 noundef %26) #8
  ret i32 0
}